target datalayout = "e-m:e-p270:32:32-p271:32:32-p272:64:64-i64:64-i128:128-f80:128-n8:16:32:64-S128"
target triple = "x86_64-pc-linux-gnu"

%struct.point_t = type { float, float }
%struct.dt_lut_t = type { ptr, ptr, ptr, ptr, ptr, ptr, ptr, ptr, ptr, ptr, ptr, ptr, ptr, ptr, ptr, ptr, ptr, %struct.image_t, %struct.image_t, ptr, ptr, ptr, ptr, ptr }
%struct.image_t = type { ptr, ptr, ptr, i32, i32, ptr, float, i32, i32, float, [4 x %struct.point_t], ptr, i32 }
%struct.chart_t = type { ptr, ptr, ptr, ptr, float, float, float, float }

@.str.109 = private unnamed_addr constant [2 x i8] c"/\00", align 1

; Function Attrs: nounwind uwtable
define internal ptr @get_filename_base(ptr noundef %0) #0 {
  %2 = alloca ptr, align 8
  %3 = alloca ptr, align 8
  %4 = alloca ptr, align 8
  %5 = alloca i32, align 4
  store ptr %0, ptr %3, align 8, !tbaa !29
  call void @llvm.lifetime.start.p0(i64 8, ptr %4) #15
  %6 = load ptr, ptr %3, align 8, !tbaa !29
  %7 = call ptr @g_strrstr(ptr noundef %6, ptr noundef @.str.109)
  store ptr %7, ptr %4, align 8, !tbaa !29
  %8 = load ptr, ptr %4, align 8, !tbaa !29
  %9 = icmp ne ptr %8, null
  br i1 %9, label %10, label %14

10:                                               ; preds = %1
  %11 = load ptr, ptr %4, align 8, !tbaa !29
  %12 = getelementptr inbounds i8, ptr %11, i64 1
  %13 = call noalias ptr @g_strdup(ptr noundef %12)
  store ptr %13, ptr %2, align 8
  store i32 1, ptr %5, align 4
  br label %17

14:                                               ; preds = %1
  %15 = load ptr, ptr %3, align 8, !tbaa !29
  %16 = call noalias ptr @g_strdup(ptr noundef %15)
  store ptr %16, ptr %2, align 8
  store i32 1, ptr %5, align 4
  br label %17

17:                                               ; preds = %14, %10
  call void @llvm.lifetime.end.p0(i64 8, ptr %4) #15
  %18 = load ptr, ptr %2, align 8
  ret ptr %18
}

; Function Attrs: nounwind uwtable
define internal void @collect_reference_patches(ptr noundef %0) #0 {
  %2 = alloca ptr, align 8
  store ptr %0, ptr %2, align 8, !tbaa !14
  %3 = load ptr, ptr %2, align 8, !tbaa !14
  %4 = getelementptr inbounds nuw %struct.dt_lut_t, ptr %3, i32 0, i32 20
  %5 = load ptr, ptr %4, align 8, !tbaa !31
  %6 = icmp ne ptr %5, null
  br i1 %6, label %7, label %14

7:                                                ; preds = %1
  %8 = load ptr, ptr %2, align 8, !tbaa !14
  %9 = getelementptr inbounds nuw %struct.dt_lut_t, ptr %8, i32 0, i32 20
  %10 = load ptr, ptr %9, align 8, !tbaa !31
  %11 = getelementptr inbounds nuw %struct.chart_t, ptr %10, i32 0, i32 2
  %12 = load ptr, ptr %11, align 8, !tbaa !124
  %13 = load ptr, ptr %2, align 8, !tbaa !14
  call void @g_hash_table_foreach(ptr noundef %12, ptr noundef @collect_reference_patches_foreach, ptr noundef %13)
  br label %14

14:                                               ; preds = %7, %1
  ret void
}

; Function Attrs: nounwind uwtable
define internal i32 @open_reference_image(ptr noundef %0, ptr noundef %1) #0 {
  %3 = alloca ptr, align 8
  %4 = alloca ptr, align 8
  %5 = alloca i32, align 4
  %6 = alloca i32, align 4
  store ptr %0, ptr %3, align 8, !tbaa !14
  store ptr %1, ptr %4, align 8, !tbaa !29
  call void @llvm.lifetime.start.p0(i64 4, ptr %5) #15
  %7 = load ptr, ptr %3, align 8, !tbaa !14
  %8 = getelementptr inbounds nuw %struct.dt_lut_t, ptr %7, i32 0, i32 18
  %9 = getelementptr inbounds nuw %struct.image_t, ptr %8, i32 0, i32 5
  %10 = load ptr, ptr %9, align 8, !tbaa !86
  %11 = icmp eq ptr %10, null
  %12 = zext i1 %11 to i32
  store i32 %12, ptr %5, align 4, !tbaa !7
  call void @llvm.lifetime.start.p0(i64 4, ptr %6) #15
  %13 = load ptr, ptr %3, align 8, !tbaa !14
  %14 = getelementptr inbounds nuw %struct.dt_lut_t, ptr %13, i32 0, i32 18
  %15 = load ptr, ptr %4, align 8, !tbaa !29
  %16 = call i32 @open_image(ptr noundef %14, ptr noundef %15)
  store i32 %16, ptr %6, align 4, !tbaa !7
  %17 = load ptr, ptr %3, align 8, !tbaa !14
  %18 = getelementptr inbounds nuw %struct.dt_lut_t, ptr %17, i32 0, i32 7
  %19 = load ptr, ptr %18, align 8, !tbaa !43
  %20 = load i32, ptr %6, align 4, !tbaa !7
  call void @gtk_widget_set_sensitive(ptr noundef %19, i32 noundef %20)
  %21 = load ptr, ptr %3, align 8, !tbaa !14
  %22 = getelementptr inbounds nuw %struct.dt_lut_t, ptr %21, i32 0, i32 8
  %23 = load ptr, ptr %22, align 8, !tbaa !44
  call void @gtk_widget_set_sensitive(ptr noundef %23, i32 noundef 0)
  %24 = load ptr, ptr %3, align 8, !tbaa !14
  %25 = getelementptr inbounds nuw %struct.dt_lut_t, ptr %24, i32 0, i32 9
  %26 = load ptr, ptr %25, align 8, !tbaa !45
  call void @gtk_widget_set_sensitive(ptr noundef %26, i32 noundef 0)
  %27 = load i32, ptr %6, align 4, !tbaa !7
  %28 = icmp ne i32 %27, 0
  br i1 %28, label %35, label %29

29:                                               ; preds = %2
  %30 = load ptr, ptr %3, align 8, !tbaa !14
  %31 = getelementptr inbounds nuw %struct.dt_lut_t, ptr %30, i32 0, i32 4
  %32 = load ptr, ptr %31, align 8, !tbaa !42
  %33 = call i64 @gtk_file_chooser_get_type() #18
  %34 = call ptr @g_type_check_instance_cast(ptr noundef %32, i64 noundef %33)
  call void @gtk_file_chooser_unselect_all(ptr noundef %34)
  br label %57

35:                                               ; preds = %2
  %36 = load i32, ptr %5, align 4, !tbaa !7
  %37 = icmp ne i32 %36, 0
  br i1 %37, label %38, label %47

38:                                               ; preds = %35
  %39 = load ptr, ptr %3, align 8, !tbaa !14
  %40 = getelementptr inbounds nuw %struct.dt_lut_t, ptr %39, i32 0, i32 18
  %41 = getelementptr inbounds nuw %struct.image_t, ptr %40, i32 0, i32 10
  %42 = getelementptr inbounds [4 x %struct.point_t], ptr %41, i64 0, i64 0
  %43 = load ptr, ptr %3, align 8, !tbaa !14
  %44 = getelementptr inbounds nuw %struct.dt_lut_t, ptr %43, i32 0, i32 17
  %45 = getelementptr inbounds nuw %struct.image_t, ptr %44, i32 0, i32 10
  %46 = getelementptr inbounds [4 x %struct.point_t], ptr %45, i64 0, i64 0
  call void @llvm.memcpy.p0.p0.i64(ptr align 8 %42, ptr align 8 %46, i64 32, i1 false)
  br label %47

47:                                               ; preds = %38, %35
  %48 = load ptr, ptr %3, align 8, !tbaa !14
  call void @collect_reference_patches(ptr noundef %48)
  %49 = load ptr, ptr %3, align 8, !tbaa !14
  call void @update_table(ptr noundef %49)
  %50 = load ptr, ptr %3, align 8, !tbaa !14
  %51 = getelementptr inbounds nuw %struct.dt_lut_t, ptr %50, i32 0, i32 19
  %52 = load ptr, ptr %51, align 8, !tbaa !85
  call void @free(ptr noundef %52) #15
  %53 = load ptr, ptr %4, align 8, !tbaa !29
  %54 = call ptr @get_filename_base(ptr noundef %53)
  %55 = load ptr, ptr %3, align 8, !tbaa !14
  %56 = getelementptr inbounds nuw %struct.dt_lut_t, ptr %55, i32 0, i32 19
  store ptr %54, ptr %56, align 8, !tbaa !85
  br label %57

57:                                               ; preds = %47, %29
  %58 = load ptr, ptr %3, align 8, !tbaa !14
  %59 = getelementptr inbounds nuw %struct.dt_lut_t, ptr %58, i32 0, i32 18
  %60 = getelementptr inbounds nuw %struct.image_t, ptr %59, i32 0, i32 0
  %61 = load ptr, ptr %60, align 8, !tbaa !84
  call void @gtk_widget_queue_draw(ptr noundef %61)
  %62 = load i32, ptr %6, align 4, !tbaa !7
  call void @llvm.lifetime.end.p0(i64 4, ptr %6) #15
  call void @llvm.lifetime.end.p0(i64 4, ptr %5) #15
  ret i32 %62
}