; Function Attrs: nounwind uwtable
define internal fastcc noundef range(i32 0, 2) i32 @open_reference_image(ptr noundef %0, ptr noundef %1) unnamed_addr #0 {
  %3 = getelementptr inbounds nuw i8, ptr %0, i64 240
  %4 = getelementptr inbounds nuw i8, ptr %0, i64 272
  %5 = load ptr, ptr %4, align 8, !tbaa !82
  %6 = tail call fastcc i32 @open_image(ptr noundef nonnull %3, ptr noundef %1)
  %7 = getelementptr inbounds nuw i8, ptr %0, i64 56
  %8 = load ptr, ptr %7, align 8, !tbaa !53
  tail call void @gtk_widget_set_sensitive(ptr noundef %8, i32 noundef %6) #24
  %9 = getelementptr inbounds nuw i8, ptr %0, i64 64
  %10 = load ptr, ptr %9, align 8, !tbaa !54
  tail call void @gtk_widget_set_sensitive(ptr noundef %10, i32 noundef 0) #24
  %11 = getelementptr inbounds nuw i8, ptr %0, i64 72
  %12 = load ptr, ptr %11, align 8, !tbaa !55
  tail call void @gtk_widget_set_sensitive(ptr noundef %12, i32 noundef 0) #24
  %.not = icmp eq i32 %6, 0
  br i1 %.not, label %13, label %18

13:                                               ; preds = %2
  %14 = getelementptr inbounds nuw i8, ptr %0, i64 32
  %15 = load ptr, ptr %14, align 8, !tbaa !47
  %16 = tail call i64 @gtk_file_chooser_get_type() #28
  %17 = tail call ptr @g_type_check_instance_cast(ptr noundef %15, i64 noundef %16) #24
  tail call void @gtk_file_chooser_unselect_all(ptr noundef %17) #24
  br label %34

18:                                               ; preds = %2
  %19 = icmp eq ptr %5, null
  br i1 %19, label %20, label %23

20:                                               ; preds = %18
  %21 = getelementptr inbounds nuw i8, ptr %0, i64 296
  %22 = getelementptr inbounds nuw i8, ptr %0, i64 192
  tail call void @llvm.memcpy.p0.p0.i64(ptr noundef nonnull align 8 dereferenceable(32) %21, ptr noundef nonnull align 8 dereferenceable(32) %22, i64 32, i1 false)
  br label %23

23:                                               ; preds = %20, %18
  %24 = getelementptr inbounds nuw i8, ptr %0, i64 352
  %25 = load ptr, ptr %24, align 8, !tbaa !64
  %.not.i = icmp eq ptr %25, null
  br i1 %.not.i, label %collect_reference_patches.exit, label %26

26:                                               ; preds = %23
  %27 = getelementptr inbounds nuw i8, ptr %25, i64 16
  %28 = load ptr, ptr %27, align 8, !tbaa !75
  tail call void @g_hash_table_foreach(ptr noundef %28, ptr noundef nonnull @collect_reference_patches_foreach, ptr noundef nonnull %0) #24
  br label %collect_reference_patches.exit

collect_reference_patches.exit:                   ; preds = %23, %26
  tail call fastcc void @update_table(ptr noundef nonnull %0)
  %29 = getelementptr inbounds nuw i8, ptr %0, i64 344
  %30 = load ptr, ptr %29, align 8, !tbaa !81
  tail call void @free(ptr noundef %30) #24
  %31 = tail call ptr @g_strrstr(ptr noundef %1, ptr noundef nonnull @.str.109) #24
  %.not.i18 = icmp eq ptr %31, null
  %32 = getelementptr inbounds nuw i8, ptr %31, i64 1
  %.sink.i = select i1 %.not.i18, ptr %1, ptr %32
  %33 = tail call noalias ptr @g_strdup(ptr noundef %.sink.i) #24
  store ptr %33, ptr %29, align 8, !tbaa !81
  br label %34

34:                                               ; preds = %collect_reference_patches.exit, %13
  %35 = load ptr, ptr %3, align 8, !tbaa !44
  tail call void @gtk_widget_queue_draw(ptr noundef %35) #24
  ret i32 %6
}